target datalayout = "e-m:e-p270:32:32-p271:32:32-p272:64:64-i64:64-i128:128-f80:128-n8:16:32:64-S128"
target triple = "x86_64-pc-linux-gnu"

%struct.lua_TValue = type { %union.Value, [1 x i32], i32 }
%union.Value = type { ptr }
%struct.Table = type { i8, i8, i8, i8, i8, i8, i8, i8, i32, %union.anon, ptr, ptr, ptr, ptr }
%union.anon = type { i32 }
%struct.LuaNode = type { %struct.lua_TValue, %struct.TKey }
%struct.TKey = type { %union.Value, [1 x i32], i32 }

; Function Attrs: mustprogress nounwind uwtable
define dso_local noundef zeroext i1 @_ZN4Luau7CodeGen17forgLoopTableIterEP9lua_StateP5TableiP10lua_TValue(ptr noundef %0, ptr noundef %1, i32 noundef %2, ptr noundef %3) #0 {
  %5 = alloca i1, align 1
  %6 = alloca ptr, align 8
  %7 = alloca ptr, align 8
  %8 = alloca i32, align 4
  %9 = alloca ptr, align 8
  %10 = alloca i32, align 4
  %11 = alloca ptr, align 8
  %12 = alloca ptr, align 8
  %13 = alloca ptr, align 8
  %14 = alloca ptr, align 8
  %15 = alloca ptr, align 8
  %16 = alloca i32, align 4
  %17 = alloca ptr, align 8
  %18 = alloca ptr, align 8
  %19 = alloca ptr, align 8
  %20 = alloca ptr, align 8
  %21 = alloca ptr, align 8
  %22 = alloca ptr, align 8
  store ptr %0, ptr %6, align 8
  store ptr %1, ptr %7, align 8
  store i32 %2, ptr %8, align 4
  store ptr %3, ptr %9, align 8
  %23 = load ptr, ptr %7, align 8
  %24 = getelementptr inbounds %struct.Table, ptr %23, i32 0, i32 8
  %25 = load i32, ptr %24, align 8
  store i32 %25, ptr %10, align 4
  br label %26

26:                                               ; preds = %69, %4
  %27 = load i32, ptr %8, align 4
  %28 = load i32, ptr %10, align 4
  %29 = icmp ult i32 %27, %28
  br i1 %29, label %30, label %72

30:                                               ; preds = %26
  %31 = load ptr, ptr %7, align 8
  %32 = getelementptr inbounds %struct.Table, ptr %31, i32 0, i32 11
  %33 = load ptr, ptr %32, align 8
  %34 = load i32, ptr %8, align 4
  %35 = sext i32 %34 to i64
  %36 = getelementptr inbounds %struct.lua_TValue, ptr %33, i64 %35
  store ptr %36, ptr %11, align 8
  %37 = load ptr, ptr %11, align 8
  %38 = getelementptr inbounds %struct.lua_TValue, ptr %37, i32 0, i32 2
  %39 = load i32, ptr %38, align 4
  %40 = icmp eq i32 %39, 0
  br i1 %40, label %69, label %41

41:                                               ; preds = %30
  %42 = load ptr, ptr %9, align 8
  %43 = getelementptr inbounds %struct.lua_TValue, ptr %42, i64 2
  store ptr %43, ptr %12, align 8
  %44 = load i32, ptr %8, align 4
  %45 = add nsw i32 %44, 1
  %46 = sext i32 %45 to i64
  %47 = inttoptr i64 %46 to ptr
  %48 = load ptr, ptr %12, align 8
  %49 = getelementptr inbounds %struct.lua_TValue, ptr %48, i32 0, i32 0
  store ptr %47, ptr %49, align 8
  %50 = load ptr, ptr %12, align 8
  %51 = getelementptr inbounds %struct.lua_TValue, ptr %50, i32 0, i32 1
  %52 = getelementptr inbounds [1 x i32], ptr %51, i64 0, i64 0
  store i32 128, ptr %52, align 8
  %53 = load ptr, ptr %12, align 8
  %54 = getelementptr inbounds %struct.lua_TValue, ptr %53, i32 0, i32 2
  store i32 2, ptr %54, align 4
  %55 = load ptr, ptr %9, align 8
  %56 = getelementptr inbounds %struct.lua_TValue, ptr %55, i64 3
  store ptr %56, ptr %13, align 8
  %57 = load i32, ptr %8, align 4
  %58 = add nsw i32 %57, 1
  %59 = sitofp i32 %58 to double
  %60 = load ptr, ptr %13, align 8
  %61 = getelementptr inbounds %struct.lua_TValue, ptr %60, i32 0, i32 0
  store double %59, ptr %61, align 8
  %62 = load ptr, ptr %13, align 8
  %63 = getelementptr inbounds %struct.lua_TValue, ptr %62, i32 0, i32 2
  store i32 3, ptr %63, align 4
  %64 = load ptr, ptr %11, align 8
  store ptr %64, ptr %14, align 8
  %65 = load ptr, ptr %9, align 8
  %66 = getelementptr inbounds %struct.lua_TValue, ptr %65, i64 4
  store ptr %66, ptr %15, align 8
  %67 = load ptr, ptr %14, align 8
  %68 = load ptr, ptr %15, align 8
  call void @llvm.memcpy.p0.p0.i64(ptr align 8 %68, ptr align 8 %67, i64 16, i1 false)
  store i1 true, ptr %5, align 1
  br label %146

69:                                               ; preds = %30
  %70 = load i32, ptr %8, align 4
  %71 = add nsw i32 %70, 1
  store i32 %71, ptr %8, align 4
  br label %26, !llvm.loop !5

72:                                               ; preds = %26
  %73 = load ptr, ptr %7, align 8
  %74 = getelementptr inbounds %struct.Table, ptr %73, i32 0, i32 6
  %75 = load i8, ptr %74, align 2
  %76 = zext i8 %75 to i32
  %77 = shl i32 1, %76
  store i32 %77, ptr %16, align 4
  br label %78

78:                                               ; preds = %142, %72
  %79 = load i32, ptr %8, align 4
  %80 = load ptr, ptr %7, align 8
  %81 = getelementptr inbounds %struct.Table, ptr %80, i32 0, i32 8
  %82 = load i32, ptr %81, align 8
  %83 = sub nsw i32 %79, %82
  %84 = load i32, ptr %16, align 4
  %85 = icmp ult i32 %83, %84
  br i1 %85, label %86, label %145

86:                                               ; preds = %78
  %87 = load ptr, ptr %7, align 8
  %88 = getelementptr inbounds %struct.Table, ptr %87, i32 0, i32 12
  %89 = load ptr, ptr %88, align 8
  %90 = load i32, ptr %8, align 4
  %91 = load i32, ptr %10, align 4
  %92 = sub nsw i32 %90, %91
  %93 = sext i32 %92 to i64
  %94 = getelementptr inbounds %struct.LuaNode, ptr %89, i64 %93
  store ptr %94, ptr %17, align 8
  %95 = load ptr, ptr %17, align 8
  %96 = getelementptr inbounds %struct.LuaNode, ptr %95, i32 0, i32 0
  %97 = getelementptr inbounds %struct.lua_TValue, ptr %96, i32 0, i32 2
  %98 = load i32, ptr %97, align 4
  %99 = icmp eq i32 %98, 0
  br i1 %99, label %142, label %100

100:                                              ; preds = %86
  %101 = load ptr, ptr %9, align 8
  %102 = getelementptr inbounds %struct.lua_TValue, ptr %101, i64 2
  store ptr %102, ptr %18, align 8
  %103 = load i32, ptr %8, align 4
  %104 = add nsw i32 %103, 1
  %105 = sext i32 %104 to i64
  %106 = inttoptr i64 %105 to ptr
  %107 = load ptr, ptr %18, align 8
  %108 = getelementptr inbounds %struct.lua_TValue, ptr %107, i32 0, i32 0
  store ptr %106, ptr %108, align 8
  %109 = load ptr, ptr %18, align 8
  %110 = getelementptr inbounds %struct.lua_TValue, ptr %109, i32 0, i32 1
  %111 = getelementptr inbounds [1 x i32], ptr %110, i64 0, i64 0
  store i32 128, ptr %111, align 8
  %112 = load ptr, ptr %18, align 8
  %113 = getelementptr inbounds %struct.lua_TValue, ptr %112, i32 0, i32 2
  store i32 2, ptr %113, align 4
  %114 = load ptr, ptr %9, align 8
  %115 = getelementptr inbounds %struct.lua_TValue, ptr %114, i64 3
  store ptr %115, ptr %19, align 8
  %116 = load ptr, ptr %17, align 8
  store ptr %116, ptr %20, align 8
  %117 = load ptr, ptr %20, align 8
  %118 = getelementptr inbounds %struct.LuaNode, ptr %117, i32 0, i32 1
  %119 = getelementptr inbounds %struct.TKey, ptr %118, i32 0, i32 0
  %120 = load ptr, ptr %19, align 8
  %121 = getelementptr inbounds %struct.lua_TValue, ptr %120, i32 0, i32 0
  call void @llvm.memcpy.p0.p0.i64(ptr align 8 %121, ptr align 8 %119, i64 8, i1 false)
  %122 = load ptr, ptr %19, align 8
  %123 = getelementptr inbounds %struct.lua_TValue, ptr %122, i32 0, i32 1
  %124 = getelementptr inbounds [1 x i32], ptr %123, i64 0, i64 0
  %125 = load ptr, ptr %20, align 8
  %126 = getelementptr inbounds %struct.LuaNode, ptr %125, i32 0, i32 1
  %127 = getelementptr inbounds %struct.TKey, ptr %126, i32 0, i32 1
  %128 = getelementptr inbounds [1 x i32], ptr %127, i64 0, i64 0
  call void @llvm.memcpy.p0.p0.i64(ptr align 8 %124, ptr align 8 %128, i64 4, i1 false)
  %129 = load ptr, ptr %20, align 8
  %130 = getelementptr inbounds %struct.LuaNode, ptr %129, i32 0, i32 1
  %131 = getelementptr inbounds %struct.TKey, ptr %130, i32 0, i32 2
  %132 = load i32, ptr %131, align 4
  %133 = and i32 %132, 15
  %134 = load ptr, ptr %19, align 8
  %135 = getelementptr inbounds %struct.lua_TValue, ptr %134, i32 0, i32 2
  store i32 %133, ptr %135, align 4
  %136 = load ptr, ptr %17, align 8
  %137 = getelementptr inbounds %struct.LuaNode, ptr %136, i32 0, i32 0
  store ptr %137, ptr %21, align 8
  %138 = load ptr, ptr %9, align 8
  %139 = getelementptr inbounds %struct.lua_TValue, ptr %138, i64 4
  store ptr %139, ptr %22, align 8
  %140 = load ptr, ptr %21, align 8
  %141 = load ptr, ptr %22, align 8
  call void @llvm.memcpy.p0.p0.i64(ptr align 8 %141, ptr align 8 %140, i64 16, i1 false)
  store i1 true, ptr %5, align 1
  br label %146

142:                                              ; preds = %86
  %143 = load i32, ptr %8, align 4
  %144 = add nsw i32 %143, 1
  store i32 %144, ptr %8, align 4
  br label %78, !llvm.loop !7

145:                                              ; preds = %78
  store i1 false, ptr %5, align 1
  br label %146

146:                                              ; preds = %145, %100, %41
  %147 = load i1, ptr %5, align 1
  ret i1 %147
}