; Function Attrs: mustprogress nofree norecurse nosync nounwind memory(readwrite, inaccessiblemem: none) uwtable
define dso_local noundef zeroext i1 @_ZN4Luau7CodeGen17forgLoopTableIterEP9lua_StateP5TableiP10lua_TValue(ptr nocapture noundef readnone %0, ptr nocapture noundef readonly %1, i32 noundef %2, ptr nocapture noundef writeonly %3) local_unnamed_addr #0 {
  %5 = getelementptr inbounds i8, ptr %1, i64 8
  %6 = load i32, ptr %5, align 8
  %7 = icmp ugt i32 %6, %2
  br i1 %7, label %.lr.ph, label %._crit_edge

.lr.ph:                                           ; preds = %4
  %8 = getelementptr inbounds i8, ptr %1, i64 24
  %9 = load ptr, ptr %8, align 8
  %10 = sext i32 %2 to i64
  br label %11

11:                                               ; preds = %.lr.ph, %26
  %indvars.iv = phi i64 [ %10, %.lr.ph ], [ %indvars.iv.next, %26 ]
  %12 = getelementptr inbounds %struct.lua_TValue, ptr %9, i64 %indvars.iv
  %13 = getelementptr inbounds i8, ptr %12, i64 12
  %14 = load i32, ptr %13, align 4
  %15 = icmp eq i32 %14, 0
  br i1 %15, label %26, label %16

16:                                               ; preds = %11
  %17 = trunc nsw i64 %indvars.iv to i32
  %18 = getelementptr inbounds i8, ptr %3, i64 32
  %19 = add nuw nsw i32 %17, 1
  %20 = sext i32 %19 to i64
  %21 = inttoptr i64 %20 to ptr
  store ptr %21, ptr %18, align 8
  %22 = getelementptr inbounds i8, ptr %3, i64 40
  store i32 128, ptr %22, align 8
  %23 = getelementptr inbounds i8, ptr %3, i64 44
  store i32 2, ptr %23, align 4
  %24 = getelementptr inbounds i8, ptr %3, i64 48
  %25 = sitofp i32 %19 to double
  store double %25, ptr %24, align 8
  br label %.loopexit.sink.split

26:                                               ; preds = %11
  %indvars.iv.next = add nuw nsw i64 %indvars.iv, 1
  %27 = trunc nsw i64 %indvars.iv.next to i32
  %28 = icmp ugt i32 %6, %27
  br i1 %28, label %11, label %._crit_edge, !llvm.loop !5

._crit_edge:                                      ; preds = %26, %4
  %.046.lcssa = phi i32 [ %2, %4 ], [ %27, %26 ]
  %29 = getelementptr inbounds i8, ptr %1, i64 6
  %30 = load i8, ptr %29, align 2
  %31 = zext nneg i8 %30 to i32
  %32 = sub nsw i32 %.046.lcssa, %6
  %.highbits52 = lshr i32 %32, %31
  %33 = icmp eq i32 %.highbits52, 0
  br i1 %33, label %.lr.ph55, label %.loopexit

.lr.ph55:                                         ; preds = %._crit_edge
  %34 = getelementptr inbounds i8, ptr %1, i64 32
  %35 = load ptr, ptr %34, align 8
  %36 = zext i32 %.046.lcssa to i64
  br label %37

37:                                               ; preds = %.lr.ph55, %60
  %indvars.iv63 = phi i64 [ %36, %.lr.ph55 ], [ %indvars.iv.next64, %60 ]
  %38 = phi i32 [ %32, %.lr.ph55 ], [ %62, %60 ]
  %39 = sext i32 %38 to i64
  %40 = getelementptr inbounds %struct.LuaNode, ptr %35, i64 %39
  %41 = getelementptr inbounds i8, ptr %40, i64 12
  %42 = load i32, ptr %41, align 4
  %43 = icmp eq i32 %42, 0
  br i1 %43, label %60, label %44

44:                                               ; preds = %37
  %45 = getelementptr inbounds i8, ptr %3, i64 32
  %46 = shl i64 %indvars.iv63, 32
  %sext = add i64 %46, 4294967296
  %47 = ashr exact i64 %sext, 32
  %48 = inttoptr i64 %47 to ptr
  store ptr %48, ptr %45, align 8
  %49 = getelementptr inbounds i8, ptr %3, i64 40
  store i32 128, ptr %49, align 8
  %50 = getelementptr inbounds i8, ptr %3, i64 44
  store i32 2, ptr %50, align 4
  %51 = getelementptr inbounds i8, ptr %3, i64 48
  %52 = getelementptr inbounds i8, ptr %40, i64 16
  %53 = load i64, ptr %52, align 8
  store i64 %53, ptr %51, align 8
  %54 = getelementptr inbounds i8, ptr %3, i64 56
  %55 = getelementptr inbounds i8, ptr %40, i64 24
  %56 = load i32, ptr %55, align 8
  store i32 %56, ptr %54, align 8
  %57 = getelementptr inbounds i8, ptr %40, i64 28
  %58 = load i32, ptr %57, align 4
  %59 = and i32 %58, 15
  br label %.loopexit.sink.split

60:                                               ; preds = %37
  %indvars.iv.next64 = add i64 %indvars.iv63, 1
  %61 = trunc i64 %indvars.iv.next64 to i32
  %62 = sub i32 %61, %6
  %.highbits = lshr i32 %62, %31
  %63 = icmp eq i32 %.highbits, 0
  br i1 %63, label %37, label %.loopexit, !llvm.loop !7

.loopexit.sink.split:                             ; preds = %16, %44
  %.sink = phi i32 [ %59, %44 ], [ 3, %16 ]
  %.lcssa.sink = phi ptr [ %40, %44 ], [ %12, %16 ]
  %64 = getelementptr inbounds i8, ptr %3, i64 60
  store i32 %.sink, ptr %64, align 4
  %65 = getelementptr inbounds i8, ptr %3, i64 64
  tail call void @llvm.memcpy.p0.p0.i64(ptr noundef nonnull align 8 dereferenceable(16) %65, ptr noundef nonnull align 8 dereferenceable(16) %.lcssa.sink, i64 16, i1 false)
  br label %.loopexit

.loopexit:                                        ; preds = %60, %.loopexit.sink.split, %._crit_edge
  %.0 = phi i1 [ false, %._crit_edge ], [ true, %.loopexit.sink.split ], [ false, %60 ]
  ret i1 %.0
}